; Function Attrs: mustprogress uwtable
define noundef signext range(i8 0, 2) i8 @_ZNK6icu_7713ICUServiceKey12isFallbackOfERKNS_13UnicodeStringE(ptr noundef nonnull align 8 dereferenceable(72) %0, ptr noundef nonnull align 8 dereferenceable(64) %1) unnamed_addr #0 align 2 {
  %3 = getelementptr inbounds nuw i8, ptr %1, i64 8
  %4 = load i16, ptr %3, align 8, !tbaa !6
  %5 = and i16 %4, 1
  %.not.i = icmp eq i16 %5, 0
  br i1 %.not.i, label %11, label %6

6:                                                ; preds = %2
  %7 = getelementptr inbounds nuw i8, ptr %0, i64 16
  %8 = load i16, ptr %7, align 8, !tbaa !6
  %9 = and i16 %8, 1
  %10 = icmp ne i16 %9, 0
  br label %_ZNK6icu_7713UnicodeStringeqERKS0_.exit

11:                                               ; preds = %2
  %12 = icmp slt i16 %4, 0
  %13 = ashr i16 %4, 5
  %14 = sext i16 %13 to i32
  %15 = getelementptr inbounds nuw i8, ptr %1, i64 12
  %16 = load i32, ptr %15, align 4
  %17 = select i1 %12, i32 %16, i32 %14
  %18 = getelementptr inbounds nuw i8, ptr %0, i64 16
  %19 = load i16, ptr %18, align 8, !tbaa !6
  %20 = icmp slt i16 %19, 0
  %21 = ashr i16 %19, 5
  %22 = sext i16 %21 to i32
  %23 = getelementptr inbounds nuw i8, ptr %0, i64 20
  %24 = load i32, ptr %23, align 4
  %25 = select i1 %20, i32 %24, i32 %22
  %26 = and i16 %19, 1
  %.not9.i = icmp eq i16 %26, 0
  %27 = icmp eq i32 %17, %25
  %or.cond.i = and i1 %.not9.i, %27
  br i1 %or.cond.i, label %28, label %_ZNK6icu_7713UnicodeStringeqERKS0_.exit

28:                                               ; preds = %11
  %29 = and i16 %19, 2
  %.not.i.i.i = icmp eq i16 %29, 0
  %30 = getelementptr inbounds nuw i8, ptr %0, i64 18
  %31 = getelementptr inbounds nuw i8, ptr %0, i64 32
  %32 = load ptr, ptr %31, align 8
  %33 = select i1 %.not.i.i.i, ptr %32, ptr %30
  %34 = tail call noundef signext i8 @_ZNK6icu_7713UnicodeString8doEqualsEPKDsi(ptr noundef nonnull align 8 dereferenceable(64) %1, ptr noundef %33, i32 noundef %17)
  %35 = icmp ne i8 %34, 0
  br label %_ZNK6icu_7713UnicodeStringeqERKS0_.exit

_ZNK6icu_7713UnicodeStringeqERKS0_.exit:          ; preds = %6, %11, %28
  %.0.i = phi i1 [ %10, %6 ], [ false, %11 ], [ %35, %28 ]
  %36 = zext i1 %.0.i to i8
  ret i8 %36
}